; Function Attrs: mustprogress nounwind uwtable
define internal fastcc void @_ZN12_GLOBAL__N_112TemplateDiff14PrintElideArgsEjj(ptr nocapture noundef nonnull readonly align 8 dereferenceable(2784) %0, i32 noundef %1, i32 noundef %2) unnamed_addr #0 align 2 {
  %4 = getelementptr inbounds nuw i8, ptr %0, i64 25
  %5 = load i8, ptr %4, align 1
  %6 = trunc i8 %5 to i1
  br i1 %6, label %7, label %.loopexit

7:                                                ; preds = %3
  %8 = getelementptr inbounds nuw i8, ptr %0, i64 48
  %9 = load ptr, ptr %8, align 8
  %10 = getelementptr inbounds nuw i8, ptr %9, i64 32
  %11 = load ptr, ptr %10, align 8
  %12 = getelementptr inbounds nuw i8, ptr %9, i64 24
  %13 = load ptr, ptr %12, align 8
  %.not.i = icmp ult ptr %11, %13
  br i1 %.not.i, label %16, label %14

14:                                               ; preds = %7
  %15 = tail call noundef nonnull align 8 dereferenceable(48) ptr @_ZN4llvm11raw_ostream5writeEh(ptr noundef nonnull align 8 dereferenceable(48) %9, i8 noundef zeroext 10) #15
  br label %_ZN4llvm11raw_ostreamlsEc.exit

16:                                               ; preds = %7
  %17 = getelementptr inbounds i8, ptr %11, i64 1
  store ptr %17, ptr %10, align 8
  store i8 10, ptr %11, align 1
  br label %_ZN4llvm11raw_ostreamlsEc.exit

_ZN4llvm11raw_ostreamlsEc.exit:                   ; preds = %14, %16
  %.not = icmp eq i32 %2, 0
  br i1 %.not, label %.loopexit, label %.lr.ph

.lr.ph:                                           ; preds = %_ZN4llvm11raw_ostreamlsEc.exit, %_ZN4llvm11raw_ostreamlsEPKc.exit
  %.016 = phi i32 [ %32, %_ZN4llvm11raw_ostreamlsEPKc.exit ], [ 0, %_ZN4llvm11raw_ostreamlsEc.exit ]
  %18 = load ptr, ptr %8, align 8
  %19 = getelementptr inbounds nuw i8, ptr %18, i64 24
  %20 = load ptr, ptr %19, align 8
  %21 = getelementptr inbounds nuw i8, ptr %18, i64 32
  %22 = load ptr, ptr %21, align 8
  %23 = ptrtoint ptr %20 to i64
  %24 = ptrtoint ptr %22 to i64
  %25 = sub i64 %23, %24
  %26 = icmp ult i64 %25, 2
  br i1 %26, label %27, label %29

27:                                               ; preds = %.lr.ph
  %28 = tail call noundef nonnull align 8 dereferenceable(48) ptr @_ZN4llvm11raw_ostream5writeEPKcm(ptr noundef nonnull align 8 dereferenceable(48) %18, ptr noundef nonnull @.str.52, i64 noundef 2) #15
  br label %_ZN4llvm11raw_ostreamlsEPKc.exit

29:                                               ; preds = %.lr.ph
  store i16 8224, ptr %22, align 1
  %30 = load ptr, ptr %21, align 8
  %31 = getelementptr inbounds i8, ptr %30, i64 2
  store ptr %31, ptr %21, align 8
  br label %_ZN4llvm11raw_ostreamlsEPKc.exit

_ZN4llvm11raw_ostreamlsEPKc.exit:                 ; preds = %27, %29
  %32 = add nuw i32 %.016, 1
  %exitcond.not = icmp eq i32 %32, %2
  br i1 %exitcond.not, label %.loopexit, label %.lr.ph, !llvm.loop !61

.loopexit:                                        ; preds = %_ZN4llvm11raw_ostreamlsEPKc.exit, %_ZN4llvm11raw_ostreamlsEc.exit, %3
  %33 = icmp eq i32 %1, 1
  %34 = getelementptr inbounds nuw i8, ptr %0, i64 48
  %35 = load ptr, ptr %34, align 8
  %36 = getelementptr inbounds nuw i8, ptr %35, i64 24
  %37 = load ptr, ptr %36, align 8
  %38 = getelementptr inbounds nuw i8, ptr %35, i64 32
  %39 = load ptr, ptr %38, align 8
  br i1 %33, label %40, label %50

40:                                               ; preds = %.loopexit
  %41 = ptrtoint ptr %37 to i64
  %42 = ptrtoint ptr %39 to i64
  %43 = sub i64 %41, %42
  %44 = icmp ult i64 %43, 5
  br i1 %44, label %45, label %47

45:                                               ; preds = %40
  %46 = tail call noundef nonnull align 8 dereferenceable(48) ptr @_ZN4llvm11raw_ostream5writeEPKcm(ptr noundef nonnull align 8 dereferenceable(48) %35, ptr noundef nonnull @.str.53, i64 noundef 5) #15
  br label %_ZN4llvm11raw_ostreamlsEPKc.exit9

47:                                               ; preds = %40
  tail call void @llvm.memcpy.p0.p0.i64(ptr noundef nonnull align 1 dereferenceable(5) %39, ptr noundef nonnull align 1 dereferenceable(5) @.str.53, i64 5, i1 false)
  %48 = load ptr, ptr %38, align 8
  %49 = getelementptr inbounds i8, ptr %48, i64 5
  store ptr %49, ptr %38, align 8
  br label %_ZN4llvm11raw_ostreamlsEPKc.exit9

50:                                               ; preds = %.loopexit
  %51 = icmp eq ptr %37, %39
  br i1 %51, label %52, label %54

52:                                               ; preds = %50
  %53 = tail call noundef nonnull align 8 dereferenceable(48) ptr @_ZN4llvm11raw_ostream5writeEPKcm(ptr noundef nonnull align 8 dereferenceable(48) %35, ptr noundef nonnull @.str.35, i64 noundef 1) #15
  br label %_ZN4llvm11raw_ostreamlsEPKc.exit12

54:                                               ; preds = %50
  store i8 91, ptr %39, align 1
  %55 = load ptr, ptr %38, align 8
  %56 = getelementptr inbounds i8, ptr %55, i64 1
  store ptr %56, ptr %38, align 8
  br label %_ZN4llvm11raw_ostreamlsEPKc.exit12

_ZN4llvm11raw_ostreamlsEPKc.exit12:               ; preds = %52, %54
  %.0.i.i11 = phi ptr [ %53, %52 ], [ %35, %54 ]
  %57 = zext i32 %1 to i64
  %58 = tail call noundef nonnull align 8 dereferenceable(48) ptr @_ZN4llvm11raw_ostreamlsEm(ptr noundef nonnull align 8 dereferenceable(48) %.0.i.i11, i64 noundef %57) #15
  %59 = getelementptr inbounds nuw i8, ptr %58, i64 24
  %60 = load ptr, ptr %59, align 8
  %61 = getelementptr inbounds nuw i8, ptr %58, i64 32
  %62 = load ptr, ptr %61, align 8
  %63 = ptrtoint ptr %60 to i64
  %64 = ptrtoint ptr %62 to i64
  %65 = sub i64 %63, %64
  %66 = icmp ult i64 %65, 7
  br i1 %66, label %67, label %69

67:                                               ; preds = %_ZN4llvm11raw_ostreamlsEPKc.exit12
  %68 = tail call noundef nonnull align 8 dereferenceable(48) ptr @_ZN4llvm11raw_ostream5writeEPKcm(ptr noundef nonnull align 8 dereferenceable(48) %58, ptr noundef nonnull @.str.54, i64 noundef 7) #15
  br label %_ZN4llvm11raw_ostreamlsEPKc.exit9

69:                                               ; preds = %_ZN4llvm11raw_ostreamlsEPKc.exit12
  tail call void @llvm.memcpy.p0.p0.i64(ptr noundef nonnull align 1 dereferenceable(7) %62, ptr noundef nonnull align 1 dereferenceable(7) @.str.54, i64 7, i1 false)
  %70 = load ptr, ptr %61, align 8
  %71 = getelementptr inbounds i8, ptr %70, i64 7
  store ptr %71, ptr %61, align 8
  br label %_ZN4llvm11raw_ostreamlsEPKc.exit9

_ZN4llvm11raw_ostreamlsEPKc.exit9:                ; preds = %69, %67, %47, %45
  ret void
}